target datalayout = "e-m:e-p270:32:32-p271:32:32-p272:64:64-i64:64-i128:128-f80:128-n8:16:32:64-S128"
target triple = "x86_64-pc-linux-gnu"

; Function Attrs: nounwind uwtable
define dso_local ptr @zzlDeleteRangeByLex(ptr noundef %0, ptr noundef %1, ptr noundef %2) #0 {
  %4 = alloca ptr, align 8
  %5 = alloca ptr, align 8
  %6 = alloca ptr, align 8
  %7 = alloca ptr, align 8
  %8 = alloca ptr, align 8
  %9 = alloca ptr, align 8
  %10 = alloca i64, align 8
  %11 = alloca i32, align 4
  store ptr %0, ptr %5, align 8, !tbaa !11
  store ptr %1, ptr %6, align 8, !tbaa !45
  store ptr %2, ptr %7, align 8, !tbaa !108
  call void @llvm.lifetime.start.p0(i64 8, ptr %8) #12
  call void @llvm.lifetime.start.p0(i64 8, ptr %9) #12
  call void @llvm.lifetime.start.p0(i64 8, ptr %10) #12
  store i64 0, ptr %10, align 8, !tbaa !31
  %12 = load ptr, ptr %7, align 8, !tbaa !108
  %13 = icmp ne ptr %12, null
  br i1 %13, label %14, label %16

14:                                               ; preds = %3
  %15 = load ptr, ptr %7, align 8, !tbaa !108
  store i64 0, ptr %15, align 8, !tbaa !31
  br label %16

16:                                               ; preds = %14, %3
  %17 = load ptr, ptr %5, align 8, !tbaa !11
  %18 = load ptr, ptr %6, align 8, !tbaa !45
  %19 = call ptr @zzlFirstInLexRange(ptr noundef %17, ptr noundef %18)
  store ptr %19, ptr %8, align 8, !tbaa !11
  %20 = load ptr, ptr %8, align 8, !tbaa !11
  %21 = icmp eq ptr %20, null
  br i1 %21, label %22, label %24

22:                                               ; preds = %16
  %23 = load ptr, ptr %5, align 8, !tbaa !11
  store ptr %23, ptr %4, align 8
  store i32 1, ptr %11, align 4
  br label %55

24:                                               ; preds = %16
  br label %25

25:                                               ; preds = %46, %24
  %26 = load ptr, ptr %8, align 8, !tbaa !11
  %27 = icmp ne ptr %26, null
  br i1 %27, label %28, label %33

28:                                               ; preds = %25
  %29 = load ptr, ptr %5, align 8, !tbaa !11
  %30 = load ptr, ptr %8, align 8, !tbaa !11
  %31 = call ptr @lpNext(ptr noundef %29, ptr noundef %30)
  store ptr %31, ptr %9, align 8, !tbaa !11
  %32 = icmp ne ptr %31, null
  br label %33

33:                                               ; preds = %28, %25
  %34 = phi i1 [ false, %25 ], [ %32, %28 ]
  br i1 %34, label %35, label %47

35:                                               ; preds = %33
  %36 = load ptr, ptr %8, align 8, !tbaa !11
  %37 = load ptr, ptr %6, align 8, !tbaa !45
  %38 = call i32 @zzlLexValueLteMax(ptr noundef %36, ptr noundef %37)
  %39 = icmp ne i32 %38, 0
  br i1 %39, label %40, label %45

40:                                               ; preds = %35
  %41 = load ptr, ptr %5, align 8, !tbaa !11
  %42 = call ptr @lpDeleteRangeWithEntry(ptr noundef %41, ptr noundef %8, i64 noundef 2)
  store ptr %42, ptr %5, align 8, !tbaa !11
  %43 = load i64, ptr %10, align 8, !tbaa !31
  %44 = add i64 %43, 1
  store i64 %44, ptr %10, align 8, !tbaa !31
  br label %46

45:                                               ; preds = %35
  br label %47

46:                                               ; preds = %40
  br label %25, !llvm.loop !111

47:                                               ; preds = %45, %33
  %48 = load ptr, ptr %7, align 8, !tbaa !108
  %49 = icmp ne ptr %48, null
  br i1 %49, label %50, label %53

50:                                               ; preds = %47
  %51 = load i64, ptr %10, align 8, !tbaa !31
  %52 = load ptr, ptr %7, align 8, !tbaa !108
  store i64 %51, ptr %52, align 8, !tbaa !31
  br label %53

53:                                               ; preds = %50, %47
  %54 = load ptr, ptr %5, align 8, !tbaa !11
  store ptr %54, ptr %4, align 8
  store i32 1, ptr %11, align 4
  br label %55

55:                                               ; preds = %53, %22
  call void @llvm.lifetime.end.p0(i64 8, ptr %10) #12
  call void @llvm.lifetime.end.p0(i64 8, ptr %9) #12
  call void @llvm.lifetime.end.p0(i64 8, ptr %8) #12
  %56 = load ptr, ptr %4, align 8
  ret ptr %56
}