; Function Attrs: nounwind uwtable
define dso_local ptr @zzlDeleteRangeByLex(ptr noundef %0, ptr noundef readonly captures(none) %1, ptr noundef writeonly captures(address_is_null) %2) local_unnamed_addr #0 {
  %4 = alloca ptr, align 8
  call void @llvm.lifetime.start.p0(i64 8, ptr nonnull %4) #18
  %.not = icmp eq ptr %2, null
  br i1 %.not, label %6, label %5

5:                                                ; preds = %3
  store i64 0, ptr %2, align 8, !tbaa !26
  br label %6

6:                                                ; preds = %5, %3
  %7 = tail call ptr @zzlFirstInLexRange(ptr noundef %0, ptr noundef %1)
  store ptr %7, ptr %4, align 8, !tbaa !9
  %8 = icmp eq ptr %7, null
  br i1 %8, label %18, label %.preheader

.preheader:                                       ; preds = %6, %14
  %.021 = phi i64 [ %16, %14 ], [ 0, %6 ]
  %.01420 = phi ptr [ %15, %14 ], [ %0, %6 ]
  %9 = phi ptr [ %.pr, %14 ], [ %7, %6 ]
  %10 = call ptr @lpNext(ptr noundef %.01420, ptr noundef nonnull %9) #18
  %.not18 = icmp eq ptr %10, null
  br i1 %.not18, label %.critedge, label %11

11:                                               ; preds = %.preheader
  %12 = load ptr, ptr %4, align 8, !tbaa !9
  %13 = call i32 @zzlLexValueLteMax(ptr noundef %12, ptr noundef %1)
  %.not19 = icmp eq i32 %13, 0
  br i1 %.not19, label %.critedge, label %14

14:                                               ; preds = %11
  %15 = call ptr @lpDeleteRangeWithEntry(ptr noundef %.01420, ptr noundef nonnull %4, i64 noundef 2) #18
  %16 = add i64 %.021, 1
  %.pr = load ptr, ptr %4, align 8, !tbaa !9
  %.not17 = icmp eq ptr %.pr, null
  br i1 %.not17, label %.critedge, label %.preheader, !llvm.loop !96

.critedge:                                        ; preds = %14, %11, %.preheader
  %.014.lcssa = phi ptr [ %15, %14 ], [ %.01420, %11 ], [ %.01420, %.preheader ]
  %.0.lcssa = phi i64 [ %16, %14 ], [ %.021, %11 ], [ %.021, %.preheader ]
  br i1 %.not, label %18, label %17

17:                                               ; preds = %.critedge
  store i64 %.0.lcssa, ptr %2, align 8, !tbaa !26
  br label %18

18:                                               ; preds = %.critedge, %17, %6
  %.013 = phi ptr [ %0, %6 ], [ %.014.lcssa, %17 ], [ %.014.lcssa, %.critedge ]
  call void @llvm.lifetime.end.p0(i64 8, ptr nonnull %4) #18
  ret ptr %.013
}